target datalayout = "e-m:e-p270:32:32-p271:32:32-p272:64:64-i64:64-i128:128-f80:128-n8:16:32:64-S128"
target triple = "x86_64-pc-linux-gnu"

%struct.QVirtioPCIDevice = type { %struct.QOSGraphObject, %struct.QVirtioDevice, ptr, %struct.QPCIBar, ptr, i16, i64, i32, i32, i32, i32, i32, i32, i32 }
%struct.QOSGraphObject = type { ptr, ptr, ptr, ptr, ptr }
%struct.QVirtioDevice = type { ptr, i16, i64, i8, i8 }
%struct.QPCIBar = type { i64, i8 }
%struct.QVirtQueuePCI = type { %struct.QVirtQueue, i16, i64, i32, i64 }
%struct.QVirtQueue = type { ptr, i64, i64, i64, i16, i32, i32, i32, i32, i16, i8, i8 }

; Function Attrs: nounwind sspstrong uwtable
define internal ptr @virtqueue_setup(ptr noundef %0, ptr noundef %1, i16 noundef zeroext %2) #0 {
  %4 = alloca ptr, align 8
  %5 = alloca ptr, align 8
  %6 = alloca i16, align 2
  %7 = alloca ptr, align 8
  %8 = alloca ptr, align 8
  %9 = alloca ptr, align 8
  %10 = alloca ptr, align 8
  %11 = alloca ptr, align 8
  %12 = alloca i16, align 2
  %13 = alloca ptr, align 8
  %14 = alloca ptr, align 8
  store ptr %0, ptr %4, align 8
  store ptr %1, ptr %5, align 8
  store i16 %2, ptr %6, align 2
  call void @llvm.lifetime.start.p0(i64 8, ptr %7) #5
  call void @llvm.lifetime.start.p0(i64 8, ptr %8) #5
  %15 = load ptr, ptr %4, align 8
  store ptr %15, ptr %8, align 8
  %16 = load ptr, ptr %8, align 8
  %17 = getelementptr inbounds i8, ptr %16, i64 -40
  store ptr %17, ptr %9, align 8
  call void @llvm.lifetime.end.p0(i64 8, ptr %8) #5
  %18 = load ptr, ptr %9, align 8
  store ptr %18, ptr %7, align 8
  call void @llvm.lifetime.start.p0(i64 8, ptr %10) #5
  store ptr null, ptr %10, align 8, !annotation !4
  call void @llvm.lifetime.start.p0(i64 8, ptr %11) #5
  store ptr null, ptr %11, align 8, !annotation !4
  call void @llvm.lifetime.start.p0(i64 2, ptr %12) #5
  store i16 0, ptr %12, align 2, !annotation !4
  %19 = load ptr, ptr %4, align 8
  %20 = load ptr, ptr %5, align 8
  %21 = load i16, ptr %6, align 2
  %22 = call ptr @qvirtio_pci_virtqueue_setup_common(ptr noundef %19, ptr noundef %20, i16 noundef zeroext %21)
  store ptr %22, ptr %10, align 8
  call void @llvm.lifetime.start.p0(i64 8, ptr %13) #5
  %23 = load ptr, ptr %10, align 8
  store ptr %23, ptr %13, align 8
  %24 = load ptr, ptr %13, align 8
  %25 = getelementptr inbounds i8, ptr %24, i64 0
  store ptr %25, ptr %14, align 8
  call void @llvm.lifetime.end.p0(i64 8, ptr %13) #5
  %26 = load ptr, ptr %14, align 8
  store ptr %26, ptr %11, align 8
  %27 = load ptr, ptr %7, align 8
  %28 = getelementptr inbounds nuw %struct.QVirtioPCIDevice, ptr %27, i32 0, i32 2
  %29 = load ptr, ptr %28, align 8
  %30 = load ptr, ptr %7, align 8
  %31 = getelementptr inbounds nuw %struct.QVirtioPCIDevice, ptr %30, i32 0, i32 3
  %32 = load ptr, ptr %7, align 8
  %33 = getelementptr inbounds nuw %struct.QVirtioPCIDevice, ptr %32, i32 0, i32 9
  %34 = load i32, ptr %33, align 8
  %35 = zext i32 %34 to i64
  %36 = add i64 %35, 30
  %37 = getelementptr inbounds nuw { i64, i8 }, ptr %31, i32 0, i32 0
  %38 = load i64, ptr %37, align 8
  %39 = getelementptr inbounds nuw { i64, i8 }, ptr %31, i32 0, i32 1
  %40 = load i8, ptr %39, align 8
  %41 = call zeroext i16 @qpci_io_readw(ptr noundef %29, i64 %38, i8 %40, i64 noundef %36)
  store i16 %41, ptr %12, align 2
  %42 = load ptr, ptr %7, align 8
  %43 = getelementptr inbounds nuw %struct.QVirtioPCIDevice, ptr %42, i32 0, i32 10
  %44 = load i32, ptr %43, align 4
  %45 = load i16, ptr %12, align 2
  %46 = zext i16 %45 to i32
  %47 = load ptr, ptr %7, align 8
  %48 = getelementptr inbounds nuw %struct.QVirtioPCIDevice, ptr %47, i32 0, i32 11
  %49 = load i32, ptr %48, align 8
  %50 = mul i32 %46, %49
  %51 = add i32 %44, %50
  %52 = zext i32 %51 to i64
  %53 = load ptr, ptr %11, align 8
  %54 = getelementptr inbounds nuw %struct.QVirtQueuePCI, ptr %53, i32 0, i32 4
  store i64 %52, ptr %54, align 8
  %55 = load ptr, ptr %7, align 8
  %56 = getelementptr inbounds nuw %struct.QVirtioPCIDevice, ptr %55, i32 0, i32 2
  %57 = load ptr, ptr %56, align 8
  %58 = load ptr, ptr %7, align 8
  %59 = getelementptr inbounds nuw %struct.QVirtioPCIDevice, ptr %58, i32 0, i32 3
  %60 = load ptr, ptr %7, align 8
  %61 = getelementptr inbounds nuw %struct.QVirtioPCIDevice, ptr %60, i32 0, i32 9
  %62 = load i32, ptr %61, align 8
  %63 = zext i32 %62 to i64
  %64 = add i64 %63, 28
  %65 = getelementptr inbounds nuw { i64, i8 }, ptr %59, i32 0, i32 0
  %66 = load i64, ptr %65, align 8
  %67 = getelementptr inbounds nuw { i64, i8 }, ptr %59, i32 0, i32 1
  %68 = load i8, ptr %67, align 8
  call void @qpci_io_writew(ptr noundef %57, i64 %66, i8 %68, i64 noundef %64, i16 noundef zeroext 1)
  %69 = load ptr, ptr %10, align 8
  call void @llvm.lifetime.end.p0(i64 2, ptr %12) #5
  call void @llvm.lifetime.end.p0(i64 8, ptr %11) #5
  call void @llvm.lifetime.end.p0(i64 8, ptr %10) #5
  call void @llvm.lifetime.end.p0(i64 8, ptr %7) #5
  ret ptr %69
}