; Function Attrs: nounwind sspstrong uwtable
define internal ptr @virtqueue_setup(ptr noundef %0, ptr noundef %1, i16 noundef zeroext %2) #0 {
  %4 = tail call ptr @qvirtio_pci_virtqueue_setup_common(ptr noundef %0, ptr noundef %1, i16 noundef zeroext %2) #3
  %5 = getelementptr inbounds nuw i8, ptr %0, i64 32
  %6 = load ptr, ptr %5, align 8
  %7 = getelementptr inbounds nuw i8, ptr %0, i64 40
  %8 = getelementptr inbounds nuw i8, ptr %0, i64 88
  %9 = load i32, ptr %8, align 8
  %10 = zext i32 %9 to i64
  %11 = add nuw nsw i64 %10, 30
  %12 = load i64, ptr %7, align 8
  %13 = getelementptr inbounds nuw i8, ptr %0, i64 48
  %14 = load i8, ptr %13, align 8
  %15 = tail call zeroext i16 @qpci_io_readw(ptr noundef %6, i64 %12, i8 %14, i64 noundef %11) #3
  %16 = getelementptr inbounds nuw i8, ptr %0, i64 92
  %17 = load i32, ptr %16, align 4
  %18 = zext i16 %15 to i32
  %19 = getelementptr inbounds nuw i8, ptr %0, i64 96
  %20 = load i32, ptr %19, align 8
  %21 = mul i32 %20, %18
  %22 = add i32 %21, %17
  %23 = zext i32 %22 to i64
  %24 = getelementptr inbounds nuw i8, ptr %4, i64 80
  store i64 %23, ptr %24, align 8
  %25 = load ptr, ptr %5, align 8
  %26 = load i32, ptr %8, align 8
  %27 = zext i32 %26 to i64
  %28 = add nuw nsw i64 %27, 28
  %29 = load i64, ptr %7, align 8
  %30 = load i8, ptr %13, align 8
  tail call void @qpci_io_writew(ptr noundef %25, i64 %29, i8 %30, i64 noundef %28, i16 noundef zeroext 1) #3
  ret ptr %4
}